; ModuleID = '14/889.c'
source_filename = "14/889.c"
target datalayout = "e-m:e-p270:32:32-p271:32:32-p272:64:64-i64:64-f80:128-n8:16:32:64-S128"
target triple = "x86_64-pc-linux-gnu"

%struct.student = type { i32, i32, i32 }

@.str = private unnamed_addr constant [3 x i8] c"%d\00", align 1
@.str.1 = private unnamed_addr constant [7 x i8] c"%d%d%d\00", align 1
@.str.2 = private unnamed_addr constant [7 x i8] c"%d %d\0A\00", align 1

; Function Attrs: noinline nounwind uwtable
define dso_local void @main() #0 {
  %1 = alloca [100000 x %struct.student], align 16
  %2 = alloca i64, align 8
  %3 = alloca i32, align 4
  %4 = alloca [100000 x i32], align 16
  %5 = alloca [3 x i32], align 4
  %6 = alloca [3 x i32], align 4
  %7 = bitcast [3 x i32]* %5 to i8*
  call void @llvm.memset.p0i8.i64(i8* align 4 %7, i8 0, i64 12, i1 false)
  %8 = call i32 (i8*, ...) @__isoc99_scanf(i8* getelementptr inbounds ([3 x i8], [3 x i8]* @.str, i64 0, i64 0), i64* %2)
  store i32 0, i32* %3, align 4
  br label %9

9:                                                ; preds = %42, %0
  %10 = load i32, i32* %3, align 4
  %11 = sext i32 %10 to i64
  %12 = load i64, i64* %2, align 8
  %13 = icmp slt i64 %11, %12
  br i1 %13, label %14, label %45

14:                                               ; preds = %9
  %15 = load i32, i32* %3, align 4
  %16 = sext i32 %15 to i64
  %17 = getelementptr inbounds [100000 x %struct.student], [100000 x %struct.student]* %1, i64 0, i64 %16
  %18 = getelementptr inbounds %struct.student, %struct.student* %17, i32 0, i32 0
  %19 = load i32, i32* %3, align 4
  %20 = sext i32 %19 to i64
  %21 = getelementptr inbounds [100000 x %struct.student], [100000 x %struct.student]* %1, i64 0, i64 %20
  %22 = getelementptr inbounds %struct.student, %struct.student* %21, i32 0, i32 1
  %23 = load i32, i32* %3, align 4
  %24 = sext i32 %23 to i64
  %25 = getelementptr inbounds [100000 x %struct.student], [100000 x %struct.student]* %1, i64 0, i64 %24
  %26 = getelementptr inbounds %struct.student, %struct.student* %25, i32 0, i32 2
  %27 = call i32 (i8*, ...) @__isoc99_scanf(i8* getelementptr inbounds ([7 x i8], [7 x i8]* @.str.1, i64 0, i64 0), i32* %18, i32* %22, i32* %26)
  %28 = load i32, i32* %3, align 4
  %29 = sext i32 %28 to i64
  %30 = getelementptr inbounds [100000 x %struct.student], [100000 x %struct.student]* %1, i64 0, i64 %29
  %31 = getelementptr inbounds %struct.student, %struct.student* %30, i32 0, i32 1
  %32 = load i32, i32* %31, align 4
  %33 = load i32, i32* %3, align 4
  %34 = sext i32 %33 to i64
  %35 = getelementptr inbounds [100000 x %struct.student], [100000 x %struct.student]* %1, i64 0, i64 %34
  %36 = getelementptr inbounds %struct.student, %struct.student* %35, i32 0, i32 2
  %37 = load i32, i32* %36, align 4
  %38 = add nsw i32 %32, %37
  %39 = load i32, i32* %3, align 4
  %40 = sext i32 %39 to i64
  %41 = getelementptr inbounds [100000 x i32], [100000 x i32]* %4, i64 0, i64 %40
  store i32 %38, i32* %41, align 4
  br label %42

42:                                               ; preds = %14
  %43 = load i32, i32* %3, align 4
  %44 = add nsw i32 %43, 1
  store i32 %44, i32* %3, align 4
  br label %9

45:                                               ; preds = %9
  store i32 0, i32* %3, align 4
  br label %46

46:                                               ; preds = %72, %45
  %47 = load i32, i32* %3, align 4
  %48 = sext i32 %47 to i64
  %49 = load i64, i64* %2, align 8
  %50 = icmp slt i64 %48, %49
  br i1 %50, label %51, label %75

51:                                               ; preds = %46
  %52 = getelementptr inbounds [3 x i32], [3 x i32]* %5, i64 0, i64 0
  %53 = load i32, i32* %52, align 4
  %54 = load i32, i32* %3, align 4
  %55 = sext i32 %54 to i64
  %56 = getelementptr inbounds [100000 x i32], [100000 x i32]* %4, i64 0, i64 %55
  %57 = load i32, i32* %56, align 4
  %58 = icmp slt i32 %53, %57
  br i1 %58, label %59, label %71

59:                                               ; preds = %51
  %60 = load i32, i32* %3, align 4
  %61 = sext i32 %60 to i64
  %62 = getelementptr inbounds [100000 x i32], [100000 x i32]* %4, i64 0, i64 %61
  %63 = load i32, i32* %62, align 4
  %64 = getelementptr inbounds [3 x i32], [3 x i32]* %5, i64 0, i64 0
  store i32 %63, i32* %64, align 4
  %65 = load i32, i32* %3, align 4
  %66 = sext i32 %65 to i64
  %67 = getelementptr inbounds [100000 x %struct.student], [100000 x %struct.student]* %1, i64 0, i64 %66
  %68 = getelementptr inbounds %struct.student, %struct.student* %67, i32 0, i32 0
  %69 = load i32, i32* %68, align 4
  %70 = getelementptr inbounds [3 x i32], [3 x i32]* %6, i64 0, i64 0
  store i32 %69, i32* %70, align 4
  br label %71

71:                                               ; preds = %59, %51
  br label %72

72:                                               ; preds = %71
  %73 = load i32, i32* %3, align 4
  %74 = add nsw i32 %73, 1
  store i32 %74, i32* %3, align 4
  br label %46

75:                                               ; preds = %46
  store i32 0, i32* %3, align 4
  br label %76

76:                                               ; preds = %113, %75
  %77 = load i32, i32* %3, align 4
  %78 = sext i32 %77 to i64
  %79 = load i64, i64* %2, align 8
  %80 = icmp slt i64 %78, %79
  br i1 %80, label %81, label %116

81:                                               ; preds = %76
  %82 = load i32, i32* %3, align 4
  %83 = sext i32 %82 to i64
  %84 = getelementptr inbounds [100000 x %struct.student], [100000 x %struct.student]* %1, i64 0, i64 %83
  %85 = getelementptr inbounds %struct.student, %struct.student* %84, i32 0, i32 0
  %86 = load i32, i32* %85, align 4
  %87 = getelementptr inbounds [3 x i32], [3 x i32]* %6, i64 0, i64 0
  %88 = load i32, i32* %87, align 4
  %89 = icmp eq i32 %86, %88
  br i1 %89, label %90, label %91

90:                                               ; preds = %81
  br label %113

91:                                               ; preds = %81
  %92 = getelementptr inbounds [3 x i32], [3 x i32]* %5, i64 0, i64 1
  %93 = load i32, i32* %92, align 4
  %94 = load i32, i32* %3, align 4
  %95 = sext i32 %94 to i64
  %96 = getelementptr inbounds [100000 x i32], [100000 x i32]* %4, i64 0, i64 %95
  %97 = load i32, i32* %96, align 4
  %98 = icmp slt i32 %93, %97
  br i1 %98, label %99, label %111

99:                                               ; preds = %91
  %100 = load i32, i32* %3, align 4
  %101 = sext i32 %100 to i64
  %102 = getelementptr inbounds [100000 x i32], [100000 x i32]* %4, i64 0, i64 %101
  %103 = load i32, i32* %102, align 4
  %104 = getelementptr inbounds [3 x i32], [3 x i32]* %5, i64 0, i64 1
  store i32 %103, i32* %104, align 4
  %105 = load i32, i32* %3, align 4
  %106 = sext i32 %105 to i64
  %107 = getelementptr inbounds [100000 x %struct.student], [100000 x %struct.student]* %1, i64 0, i64 %106
  %108 = getelementptr inbounds %struct.student, %struct.student* %107, i32 0, i32 0
  %109 = load i32, i32* %108, align 4
  %110 = getelementptr inbounds [3 x i32], [3 x i32]* %6, i64 0, i64 1
  store i32 %109, i32* %110, align 4
  br label %111

111:                                              ; preds = %99, %91
  br label %112

112:                                              ; preds = %111
  br label %113

113:                                              ; preds = %112, %90
  %114 = load i32, i32* %3, align 4
  %115 = add nsw i32 %114, 1
  store i32 %115, i32* %3, align 4
  br label %76

116:                                              ; preds = %76
  store i32 0, i32* %3, align 4
  br label %117

117:                                              ; preds = %163, %116
  %118 = load i32, i32* %3, align 4
  %119 = sext i32 %118 to i64
  %120 = load i64, i64* %2, align 8
  %121 = icmp slt i64 %119, %120
  br i1 %121, label %122, label %166

122:                                              ; preds = %117
  %123 = load i32, i32* %3, align 4
  %124 = sext i32 %123 to i64
  %125 = getelementptr inbounds [100000 x %struct.student], [100000 x %struct.student]* %1, i64 0, i64 %124
  %126 = getelementptr inbounds %struct.student, %struct.student* %125, i32 0, i32 0
  %127 = load i32, i32* %126, align 4
  %128 = getelementptr inbounds [3 x i32], [3 x i32]* %6, i64 0, i64 1
  %129 = load i32, i32* %128, align 4
  %130 = icmp eq i32 %127, %129
  br i1 %130, label %140, label %131

131:                                              ; preds = %122
  %132 = load i32, i32* %3, align 4
  %133 = sext i32 %132 to i64
  %134 = getelementptr inbounds [100000 x %struct.student], [100000 x %struct.student]* %1, i64 0, i64 %133
  %135 = getelementptr inbounds %struct.student, %struct.student* %134, i32 0, i32 0
  %136 = load i32, i32* %135, align 4
  %137 = getelementptr inbounds [3 x i32], [3 x i32]* %6, i64 0, i64 0
  %138 = load i32, i32* %137, align 4
  %139 = icmp eq i32 %136, %138
  br i1 %139, label %140, label %141

140:                                              ; preds = %131, %122
  br label %163

141:                                              ; preds = %131
  %142 = getelementptr inbounds [3 x i32], [3 x i32]* %5, i64 0, i64 2
  %143 = load i32, i32* %142, align 4
  %144 = load i32, i32* %3, align 4
  %145 = sext i32 %144 to i64
  %146 = getelementptr inbounds [100000 x i32], [100000 x i32]* %4, i64 0, i64 %145
  %147 = load i32, i32* %146, align 4
  %148 = icmp slt i32 %143, %147
  br i1 %148, label %149, label %161

149:                                              ; preds = %141
  %150 = load i32, i32* %3, align 4
  %151 = sext i32 %150 to i64
  %152 = getelementptr inbounds [100000 x i32], [100000 x i32]* %4, i64 0, i64 %151
  %153 = load i32, i32* %152, align 4
  %154 = getelementptr inbounds [3 x i32], [3 x i32]* %5, i64 0, i64 2
  store i32 %153, i32* %154, align 4
  %155 = load i32, i32* %3, align 4
  %156 = sext i32 %155 to i64
  %157 = getelementptr inbounds [100000 x %struct.student], [100000 x %struct.student]* %1, i64 0, i64 %156
  %158 = getelementptr inbounds %struct.student, %struct.student* %157, i32 0, i32 0
  %159 = load i32, i32* %158, align 4
  %160 = getelementptr inbounds [3 x i32], [3 x i32]* %6, i64 0, i64 2
  store i32 %159, i32* %160, align 4
  br label %161

161:                                              ; preds = %149, %141
  br label %162

162:                                              ; preds = %161
  br label %163

163:                                              ; preds = %162, %140
  %164 = load i32, i32* %3, align 4
  %165 = add nsw i32 %164, 1
  store i32 %165, i32* %3, align 4
  br label %117

166:                                              ; preds = %117
  store i32 0, i32* %3, align 4
  br label %167

167:                                              ; preds = %180, %166
  %168 = load i32, i32* %3, align 4
  %169 = icmp slt i32 %168, 3
  br i1 %169, label %170, label %183

170:                                              ; preds = %167
  %171 = load i32, i32* %3, align 4
  %172 = sext i32 %171 to i64
  %173 = getelementptr inbounds [3 x i32], [3 x i32]* %6, i64 0, i64 %172
  %174 = load i32, i32* %173, align 4
  %175 = load i32, i32* %3, align 4
  %176 = sext i32 %175 to i64
  %177 = getelementptr inbounds [3 x i32], [3 x i32]* %5, i64 0, i64 %176
  %178 = load i32, i32* %177, align 4
  %179 = call i32 (i8*, ...) @printf(i8* getelementptr inbounds ([7 x i8], [7 x i8]* @.str.2, i64 0, i64 0), i32 %174, i32 %178)
  br label %180

180:                                              ; preds = %170
  %181 = load i32, i32* %3, align 4
  %182 = add nsw i32 %181, 1
  store i32 %182, i32* %3, align 4
  br label %167

183:                                              ; preds = %167
  ret void
}

; Function Attrs: argmemonly nounwind willreturn
declare void @llvm.memset.p0i8.i64(i8* nocapture writeonly, i8, i64, i1 immarg) #1

declare dso_local i32 @__isoc99_scanf(i8*, ...) #2

declare dso_local i32 @printf(i8*, ...) #2


!llvm.module.flags = !{!0}
!llvm.ident = !{!1}

!0 = !{i32 1, !"wchar_size", i32 4}
!1 = !{!"clang version 10.0.0-4ubuntu1 "}
